; Function Attrs: mustprogress uwtable
define hidden noundef ptr @_ZN5arith6solver8next_supEPN6lp_api5boundIN3sat7literalEEENS1_10bound_kindEPS6_S8_Rb(ptr nocapture noundef nonnull readnone align 8 dereferenceable(1144) %this, ptr noundef %a1, i32 noundef %kind, ptr noundef readonly %it, ptr noundef readnone %end, ptr nocapture noundef nonnull writeonly align 1 dereferenceable(1) %found_compatible) local_unnamed_addr #3 align 2 {
entry:
  %m_value.i = getelementptr inbounds i8, ptr %a1, i64 24
  store i8 0, ptr %found_compatible, align 1
  %cmp.not10 = icmp eq ptr %it, %end
  br i1 %cmp.not10, label %return, label %for.body.lr.ph

for.body.lr.ph:                                   ; preds = %entry
  %m_den.i.i.i = getelementptr inbounds i8, ptr %a1, i64 40
  %m_kind.i.i.i.i.i.i = getelementptr inbounds i8, ptr %a1, i64 44
  %m_kind.i.i.i.i.i = getelementptr inbounds i8, ptr %a1, i64 28
  br label %for.body

for.body:                                         ; preds = %for.body.lr.ph, %for.inc
  %it.addr.011 = phi ptr [ %it, %for.body.lr.ph ], [ %incdec.ptr, %for.inc ]
  %0 = load ptr, ptr %it.addr.011, align 8
  %cmp2 = icmp eq ptr %0, %a1
  br i1 %cmp2, label %for.inc, label %if.end

if.end:                                           ; preds = %for.body
  %m_bound_kind.i = getelementptr inbounds i8, ptr %0, i64 56
  %1 = load i32, ptr %m_bound_kind.i, align 8
  %cmp4.not = icmp eq i32 %1, %kind
  br i1 %cmp4.not, label %if.end6, label %for.inc

if.end6:                                          ; preds = %if.end
  %m_value.i9 = getelementptr inbounds i8, ptr %0, i64 24
  store i8 1, ptr %found_compatible, align 1
  %2 = load ptr, ptr @_ZN8rational13g_mpq_managerE, align 8
  %bf.load.i.i.i.i.i.i = load i8, ptr %m_kind.i.i.i.i.i.i, align 4
  %bf.clear.i.i.i.i.i.i = and i8 %bf.load.i.i.i.i.i.i, 1
  %cmp.i.i.i.i.i.i = icmp eq i8 %bf.clear.i.i.i.i.i.i, 0
  %3 = load i32, ptr %m_den.i.i.i, align 8
  %cmp.i.i.i.i.i = icmp eq i32 %3, 1
  %4 = select i1 %cmp.i.i.i.i.i.i, i1 %cmp.i.i.i.i.i, i1 false
  br i1 %4, label %land.lhs.true.i.i, label %if.else.i.i

land.lhs.true.i.i:                                ; preds = %if.end6
  %m_den.i5.i.i = getelementptr inbounds i8, ptr %0, i64 40
  %m_kind.i.i.i.i6.i.i = getelementptr inbounds i8, ptr %0, i64 44
  %bf.load.i.i.i.i7.i.i = load i8, ptr %m_kind.i.i.i.i6.i.i, align 4
  %bf.clear.i.i.i.i8.i.i = and i8 %bf.load.i.i.i.i7.i.i, 1
  %cmp.i.i.i.i9.i.i = icmp eq i8 %bf.clear.i.i.i.i8.i.i, 0
  %5 = load i32, ptr %m_den.i5.i.i, align 8
  %cmp.i.i.i10.i.i = icmp eq i32 %5, 1
  %6 = select i1 %cmp.i.i.i.i9.i.i, i1 %cmp.i.i.i10.i.i, i1 false
  br i1 %6, label %if.then.i.i, label %if.else.i.i

if.then.i.i:                                      ; preds = %land.lhs.true.i.i
  %bf.load.i.i.i.i.i = load i8, ptr %m_kind.i.i.i.i.i, align 4
  %bf.clear.i.i.i.i.i = and i8 %bf.load.i.i.i.i.i, 1
  %cmp.i.i.i11.i.i = icmp eq i8 %bf.clear.i.i.i.i.i, 0
  br i1 %cmp.i.i.i11.i.i, label %land.lhs.true.i.i.i.i, label %_ZltRK8rationalS1_.exit

land.lhs.true.i.i.i.i:                            ; preds = %if.then.i.i
  %m_kind.i5.i.i.i.i = getelementptr inbounds i8, ptr %0, i64 28
  %bf.load.i6.i.i.i.i = load i8, ptr %m_kind.i5.i.i.i.i, align 4
  %bf.clear.i7.i.i.i.i = and i8 %bf.load.i6.i.i.i.i, 1
  %cmp.i8.i.i.i.i = icmp eq i8 %bf.clear.i7.i.i.i.i, 0
  br i1 %cmp.i8.i.i.i.i, label %if.then.i.i.i.i, label %_ZltRK8rationalS1_.exit

if.then.i.i.i.i:                                  ; preds = %land.lhs.true.i.i.i.i
  %7 = load i32, ptr %m_value.i, align 8
  %8 = load i32, ptr %m_value.i9, align 8
  %cmp.i.i.i.i = icmp slt i32 %7, %8
  br i1 %cmp.i.i.i.i, label %return, label %for.inc

if.else.i.i:                                      ; preds = %land.lhs.true.i.i, %if.end6
  %call5.i.i = tail call noundef zeroext i1 @_ZN11mpq_managerILb1EE6rat_ltERK3mpqS3_(ptr noundef nonnull align 8 dereferenceable(728) %2, ptr noundef nonnull align 8 dereferenceable(32) %m_value.i, ptr noundef nonnull align 8 dereferenceable(32) %m_value.i9)
  br i1 %call5.i.i, label %return, label %for.inc

_ZltRK8rationalS1_.exit:                          ; preds = %if.then.i.i, %land.lhs.true.i.i.i.i
  %call4.i.i.i.i = tail call noundef i32 @_ZN11mpz_managerILb1EE11big_compareERK3mpzS3_(ptr noundef nonnull align 8 dereferenceable(600) %2, ptr noundef nonnull align 8 dereferenceable(16) %m_value.i, ptr noundef nonnull align 8 dereferenceable(16) %m_value.i9)
  %cmp5.i.i.i.i = icmp slt i32 %call4.i.i.i.i, 0
  br i1 %cmp5.i.i.i.i, label %return, label %for.inc

for.inc:                                          ; preds = %if.then.i.i.i.i, %if.else.i.i, %_ZltRK8rationalS1_.exit, %if.end, %for.body
  %incdec.ptr = getelementptr inbounds i8, ptr %it.addr.011, i64 8
  %cmp.not = icmp eq ptr %incdec.ptr, %end
  br i1 %cmp.not, label %return, label %for.body, !llvm.loop !43

return:                                           ; preds = %_ZltRK8rationalS1_.exit, %for.inc, %if.else.i.i, %if.then.i.i.i.i, %entry
  %retval.0 = phi ptr [ %it, %entry ], [ %it.addr.011, %if.then.i.i.i.i ], [ %it.addr.011, %if.else.i.i ], [ %end, %for.inc ], [ %it.addr.011, %_ZltRK8rationalS1_.exit ]
  ret ptr %retval.0
}